; Function Attrs: mustprogress nounwind uwtable
define hidden void @_ZN13MethodHandles21load_klass_from_ClassEP14MacroAssembler8Register(ptr noundef %0, i32 %1) local_unnamed_addr #0 align 2 {
  %3 = alloca %class.Address, align 8
  %4 = load i8, ptr @PrintInterpreter, align 1
  %5 = trunc i8 %4 to i1
  br i1 %5, label %6, label %_ZN12Disassembler4hookI14MacroAssemblerEEPT_PKciS3_.exit

6:                                                ; preds = %2
  tail call void @_ZN12Disassembler5_hookEPKciP14MacroAssembler(ptr noundef nonnull @.str.4, i32 noundef 61, ptr noundef %0) #7
  br label %_ZN12Disassembler4hookI14MacroAssemblerEEPT_PKciS3_.exit

_ZN12Disassembler4hookI14MacroAssemblerEEPT_PKciS3_.exit: ; preds = %2, %6
  %7 = load i32, ptr @_ZN15java_lang_Class13_klass_offsetE, align 4
  store i32 %1, ptr %3, align 8
  %8 = getelementptr inbounds i8, ptr %3, i64 4
  store i32 -1, ptr %8, align 4
  %9 = getelementptr inbounds i8, ptr %3, i64 8
  store i32 -1, ptr %9, align 8
  %10 = getelementptr inbounds i8, ptr %3, i64 12
  store i32 -1, ptr %10, align 4
  %11 = getelementptr inbounds i8, ptr %3, i64 16
  store i32 %7, ptr %11, align 8
  %12 = getelementptr inbounds i8, ptr %3, i64 20
  store i8 0, ptr %12, align 4
  %13 = getelementptr inbounds i8, ptr %3, i64 24
  store ptr getelementptr inbounds inrange(-16, 72) (i8, ptr @_ZTV10Relocation, i64 16), ptr %13, align 8
  %14 = getelementptr inbounds i8, ptr %3, i64 32
  store ptr null, ptr %14, align 8
  %15 = getelementptr inbounds i8, ptr %3, i64 40
  store i32 0, ptr %15, align 8
  call void @_ZN14MacroAssembler6movptrE8Register7Address(ptr noundef nonnull align 8 dereferenceable(40) %0, i32 %1, ptr noundef nonnull %3) #7
  ret void
}